; Function Attrs: mustprogress nofree norecurse nosync nounwind memory(argmem: read, inaccessiblemem: write) uwtable
define dso_local noundef i32 @_ZN4llvm3pdb12hashStringV1ENS_9StringRefE(ptr %0, i64 %1) local_unnamed_addr #0 {
  %3 = trunc i64 %1 to i32
  %4 = lshr i64 %1, 2
  %5 = and i64 %4, 1073741823
  %6 = getelementptr inbounds %"struct.llvm::support::detail::packed_endian_specific_integral", ptr %0, i64 %5
  %.not33 = icmp eq i64 %5, 0
  br i1 %.not33, label %._crit_edge, label %.lr.ph

.lr.ph:                                           ; preds = %2, %.lr.ph
  %.035 = phi i32 [ %8, %.lr.ph ], [ 0, %2 ]
  %.02234 = phi ptr [ %9, %.lr.ph ], [ %0, %2 ]
  %7 = load i32, ptr %.02234, align 1
  %8 = xor i32 %7, %.035
  %9 = getelementptr inbounds i8, ptr %.02234, i64 4
  %.not = icmp eq ptr %9, %6
  br i1 %.not, label %._crit_edge, label %.lr.ph

._crit_edge:                                      ; preds = %.lr.ph, %2
  %.0.lcssa = phi i32 [ 0, %2 ], [ %8, %.lr.ph ]
  %10 = and i32 %3, 3
  %11 = icmp ugt i32 %10, 1
  br i1 %11, label %12, label %17

12:                                               ; preds = %._crit_edge
  call void @llvm.assume(i1 true) [ "align"(ptr %6, i64 1) ]
  %.0.copyload.i.i.i27 = load i16, ptr %6, align 1
  %13 = zext i16 %.0.copyload.i.i.i27 to i32
  %14 = xor i32 %.0.lcssa, %13
  %15 = getelementptr inbounds i8, ptr %6, i64 2
  %16 = add nsw i32 %10, -2
  br label %17

17:                                               ; preds = %12, %._crit_edge
  %.024 = phi ptr [ %15, %12 ], [ %6, %._crit_edge ]
  %.023 = phi i32 [ %16, %12 ], [ %10, %._crit_edge ]
  %.1 = phi i32 [ %14, %12 ], [ %.0.lcssa, %._crit_edge ]
  %18 = icmp eq i32 %.023, 1
  br i1 %18, label %19, label %23

19:                                               ; preds = %17
  %20 = load i8, ptr %.024, align 1
  %21 = zext i8 %20 to i32
  %22 = xor i32 %.1, %21
  br label %23

23:                                               ; preds = %19, %17
  %.2 = phi i32 [ %22, %19 ], [ %.1, %17 ]
  %24 = or i32 %.2, 538976288
  %25 = lshr i32 %24, 11
  %26 = xor i32 %25, %24
  %27 = lshr i32 %26, 16
  %28 = xor i32 %27, %26
  ret i32 %28
}